target datalayout = "e-m:e-p270:32:32-p271:32:32-p272:64:64-i64:64-i128:128-f80:128-n8:16:32:64-S128"
target triple = "x86_64-pc-linux-gnu"

%class.ProcSmapsPrinter = type { ptr }
%class.ProcSmapsSummary = type { i32, i64, i64, i64, i64, i64, i64, i64 }
%struct.ProcSmapsInfo = type { ptr, ptr, [21 x i8], [1025 x i8], i64, i64, i64, i64, i64, i64, i8, i8, i8, i8, i8, i8, i8, i8 }
%class.ProcSmapsParser = type { ptr, i64, ptr }
%class.MappingPrintSession = type { ptr, ptr }

@__const._ZN13MemMapPrinter21pd_print_all_mappingsERK19MappingPrintSession.filename = private unnamed_addr constant [17 x i8] c"/proc/self/smaps\00", align 16
@.str = private unnamed_addr constant [2 x i8] c"r\00", align 1
@.str.4 = private unnamed_addr constant [15 x i8] c"Cannot open %s\00", align 1
@.str.20 = private unnamed_addr constant [147 x i8] c"from               to                        vsize prot          rss      hugetlb pgsz notes            info                                  file\00", align 1
@.str.21 = private unnamed_addr constant [169 x i8] c"========================================================================================================================================================================\00", align 1

; Function Attrs: mustprogress nounwind uwtable
define linkonce_odr hidden noundef i64 @_Z13pointer_deltaPVKvS0_m(ptr noundef %0, ptr noundef %1, i64 noundef %2) #1 comdat {
  %4 = alloca ptr, align 8
  %5 = alloca ptr, align 8
  %6 = alloca i64, align 8
  store ptr %0, ptr %4, align 8
  store ptr %1, ptr %5, align 8
  store i64 %2, ptr %6, align 8
  %7 = load ptr, ptr %4, align 8
  %8 = ptrtoint ptr %7 to i64
  %9 = load ptr, ptr %5, align 8
  %10 = ptrtoint ptr %9 to i64
  %11 = sub i64 %8, %10
  %12 = load i64, ptr %6, align 8
  %13 = udiv i64 %11, %12
  ret i64 %13
}

; Function Attrs: mustprogress nounwind uwtable
define linkonce_odr hidden noundef i64 @_ZNK13ProcSmapsInfo5vsizeEv(ptr noundef nonnull align 8 dereferenceable(1120) %0) #1 comdat align 2 {
  %2 = alloca ptr, align 8
  store ptr %0, ptr %2, align 8
  %3 = load ptr, ptr %2, align 8
  %4 = getelementptr inbounds %struct.ProcSmapsInfo, ptr %3, i32 0, i32 0
  %5 = load ptr, ptr %4, align 8
  %6 = getelementptr inbounds %struct.ProcSmapsInfo, ptr %3, i32 0, i32 1
  %7 = load ptr, ptr %6, align 8
  %8 = icmp ult ptr %5, %7
  br i1 %8, label %9, label %15

9:                                                ; preds = %1
  %10 = getelementptr inbounds %struct.ProcSmapsInfo, ptr %3, i32 0, i32 1
  %11 = load ptr, ptr %10, align 8
  %12 = getelementptr inbounds %struct.ProcSmapsInfo, ptr %3, i32 0, i32 0
  %13 = load ptr, ptr %12, align 8
  %14 = call noundef i64 @_Z13pointer_deltaPVKvS0_m(ptr noundef %11, ptr noundef %13, i64 noundef 1)
  br label %16

15:                                               ; preds = %1
  br label %16

16:                                               ; preds = %15, %9
  %17 = phi i64 [ %14, %9 ], [ 0, %15 ]
  ret i64 %17
}

; Function Attrs: mustprogress nounwind uwtable
define linkonce_odr hidden void @_ZN16ProcSmapsSummary11add_mappingERK13ProcSmapsInfo(ptr noundef nonnull align 8 dereferenceable(64) %0, ptr noundef nonnull align 8 dereferenceable(1120) %1) #1 comdat align 2 {
  %3 = alloca ptr, align 8
  %4 = alloca ptr, align 8
  store ptr %0, ptr %3, align 8
  store ptr %1, ptr %4, align 8
  %5 = load ptr, ptr %3, align 8
  %6 = getelementptr inbounds %class.ProcSmapsSummary, ptr %5, i32 0, i32 0
  %7 = load i32, ptr %6, align 8
  %8 = add i32 %7, 1
  store i32 %8, ptr %6, align 8
  %9 = load ptr, ptr %4, align 8
  %10 = call noundef i64 @_ZNK13ProcSmapsInfo5vsizeEv(ptr noundef nonnull align 8 dereferenceable(1120) %9)
  %11 = getelementptr inbounds %class.ProcSmapsSummary, ptr %5, i32 0, i32 1
  %12 = load i64, ptr %11, align 8
  %13 = add i64 %12, %10
  store i64 %13, ptr %11, align 8
  %14 = load ptr, ptr %4, align 8
  %15 = getelementptr inbounds %struct.ProcSmapsInfo, ptr %14, i32 0, i32 5
  %16 = load i64, ptr %15, align 8
  %17 = getelementptr inbounds %class.ProcSmapsSummary, ptr %5, i32 0, i32 2
  %18 = load i64, ptr %17, align 8
  %19 = add i64 %18, %16
  store i64 %19, ptr %17, align 8
  %20 = load ptr, ptr %4, align 8
  %21 = getelementptr inbounds %struct.ProcSmapsInfo, ptr %20, i32 0, i32 14
  %22 = load i8, ptr %21, align 4
  %23 = trunc i8 %22 to i1
  br i1 %23, label %24, label %25

24:                                               ; preds = %2
  br label %28

25:                                               ; preds = %2
  %26 = load ptr, ptr %4, align 8
  %27 = call noundef i64 @_ZNK13ProcSmapsInfo5vsizeEv(ptr noundef nonnull align 8 dereferenceable(1120) %26)
  br label %28

28:                                               ; preds = %25, %24
  %29 = phi i64 [ 0, %24 ], [ %27, %25 ]
  %30 = getelementptr inbounds %class.ProcSmapsSummary, ptr %5, i32 0, i32 3
  %31 = load i64, ptr %30, align 8
  %32 = add i64 %31, %29
  store i64 %32, ptr %30, align 8
  %33 = load ptr, ptr %4, align 8
  %34 = getelementptr inbounds %struct.ProcSmapsInfo, ptr %33, i32 0, i32 13
  %35 = load i8, ptr %34, align 1
  %36 = trunc i8 %35 to i1
  br i1 %36, label %37, label %40

37:                                               ; preds = %28
  %38 = load ptr, ptr %4, align 8
  %39 = call noundef i64 @_ZNK13ProcSmapsInfo5vsizeEv(ptr noundef nonnull align 8 dereferenceable(1120) %38)
  br label %41

40:                                               ; preds = %28
  br label %41

41:                                               ; preds = %40, %37
  %42 = phi i64 [ %39, %37 ], [ 0, %40 ]
  %43 = getelementptr inbounds %class.ProcSmapsSummary, ptr %5, i32 0, i32 4
  %44 = load i64, ptr %43, align 8
  %45 = add i64 %44, %42
  store i64 %45, ptr %43, align 8
  %46 = load ptr, ptr %4, align 8
  %47 = getelementptr inbounds %struct.ProcSmapsInfo, ptr %46, i32 0, i32 9
  %48 = load i64, ptr %47, align 8
  %49 = getelementptr inbounds %class.ProcSmapsSummary, ptr %5, i32 0, i32 5
  %50 = load i64, ptr %49, align 8
  %51 = add i64 %50, %48
  store i64 %51, ptr %49, align 8
  %52 = load ptr, ptr %4, align 8
  %53 = getelementptr inbounds %struct.ProcSmapsInfo, ptr %52, i32 0, i32 6
  %54 = load i64, ptr %53, align 8
  %55 = load ptr, ptr %4, align 8
  %56 = getelementptr inbounds %struct.ProcSmapsInfo, ptr %55, i32 0, i32 7
  %57 = load i64, ptr %56, align 8
  %58 = add i64 %54, %57
  %59 = getelementptr inbounds %class.ProcSmapsSummary, ptr %5, i32 0, i32 6
  %60 = load i64, ptr %59, align 8
  %61 = add i64 %60, %58
  store i64 %61, ptr %59, align 8
  %62 = load ptr, ptr %4, align 8
  %63 = getelementptr inbounds %struct.ProcSmapsInfo, ptr %62, i32 0, i32 8
  %64 = load i64, ptr %63, align 8
  %65 = getelementptr inbounds %class.ProcSmapsSummary, ptr %5, i32 0, i32 7
  %66 = load i64, ptr %65, align 8
  %67 = add i64 %66, %64
  store i64 %67, ptr %65, align 8
  ret void
}

; Function Attrs: mustprogress nounwind uwtable
define linkonce_odr hidden void @_ZNK16ProcSmapsPrinter12print_headerEv(ptr noundef nonnull align 8 dereferenceable(8) %0) #1 comdat align 2 {
  %2 = alloca ptr, align 8
  %3 = alloca ptr, align 8
  store ptr %0, ptr %2, align 8
  %4 = load ptr, ptr %2, align 8
  %5 = getelementptr inbounds %class.ProcSmapsPrinter, ptr %4, i32 0, i32 0
  %6 = load ptr, ptr %5, align 8
  %7 = call noundef ptr @_ZNK19MappingPrintSession3outEv(ptr noundef nonnull align 8 dereferenceable(16) %6)
  store ptr %7, ptr %3, align 8
  %8 = load ptr, ptr %3, align 8
  call void (ptr, ptr, ...) @_ZN12outputStream8print_crEPKcz(ptr noundef nonnull align 8 dereferenceable(56) %8, ptr noundef @.str.20)
  %9 = load ptr, ptr %3, align 8
  call void (ptr, ptr, ...) @_ZN12outputStream8print_crEPKcz(ptr noundef nonnull align 8 dereferenceable(56) %9, ptr noundef @.str.21)
  ret void
}

; Function Attrs: mustprogress nounwind uwtable
define linkonce_odr hidden void @_ZN16ProcSmapsSummaryC2Ev(ptr noundef nonnull align 8 dereferenceable(64) %0) unnamed_addr #1 comdat align 2 {
  %2 = alloca ptr, align 8
  store ptr %0, ptr %2, align 8
  %3 = load ptr, ptr %2, align 8
  %4 = getelementptr inbounds %class.ProcSmapsSummary, ptr %3, i32 0, i32 0
  store i32 0, ptr %4, align 8
  %5 = getelementptr inbounds %class.ProcSmapsSummary, ptr %3, i32 0, i32 1
  store i64 0, ptr %5, align 8
  %6 = getelementptr inbounds %class.ProcSmapsSummary, ptr %3, i32 0, i32 2
  store i64 0, ptr %6, align 8
  %7 = getelementptr inbounds %class.ProcSmapsSummary, ptr %3, i32 0, i32 3
  store i64 0, ptr %7, align 8
  %8 = getelementptr inbounds %class.ProcSmapsSummary, ptr %3, i32 0, i32 4
  store i64 0, ptr %8, align 8
  %9 = getelementptr inbounds %class.ProcSmapsSummary, ptr %3, i32 0, i32 5
  store i64 0, ptr %9, align 8
  %10 = getelementptr inbounds %class.ProcSmapsSummary, ptr %3, i32 0, i32 6
  store i64 0, ptr %10, align 8
  %11 = getelementptr inbounds %class.ProcSmapsSummary, ptr %3, i32 0, i32 7
  store i64 0, ptr %11, align 8
  ret void
}

; Function Attrs: mustprogress nounwind uwtable
define linkonce_odr hidden void @_ZN16ProcSmapsPrinterC2ERK19MappingPrintSession(ptr noundef nonnull align 8 dereferenceable(8) %0, ptr noundef nonnull align 8 dereferenceable(16) %1) unnamed_addr #1 comdat align 2 {
  %3 = alloca ptr, align 8
  %4 = alloca ptr, align 8
  store ptr %0, ptr %3, align 8
  store ptr %1, ptr %4, align 8
  %5 = load ptr, ptr %3, align 8
  %6 = getelementptr inbounds %class.ProcSmapsPrinter, ptr %5, i32 0, i32 0
  %7 = load ptr, ptr %4, align 8
  store ptr %7, ptr %6, align 8
  ret void
}

; Function Attrs: mustprogress nounwind uwtable
define linkonce_odr hidden noundef ptr @_ZNK19MappingPrintSession3outEv(ptr noundef nonnull align 8 dereferenceable(16) %0) #1 comdat align 2 {
  %2 = alloca ptr, align 8
  store ptr %0, ptr %2, align 8
  %3 = load ptr, ptr %2, align 8
  %4 = getelementptr inbounds %class.MappingPrintSession, ptr %3, i32 0, i32 0
  %5 = load ptr, ptr %4, align 8
  ret ptr %5
}

; Function Attrs: mustprogress nounwind uwtable
define hidden void @_ZN13MemMapPrinter21pd_print_all_mappingsERK19MappingPrintSession(ptr noundef nonnull align 8 dereferenceable(16) %0) #1 align 2 {
  %2 = alloca ptr, align 8
  %3 = alloca [17 x i8], align 16
  %4 = alloca ptr, align 8
  %5 = alloca %class.ProcSmapsPrinter, align 8
  %6 = alloca %class.ProcSmapsSummary, align 8
  %7 = alloca ptr, align 8
  %8 = alloca %struct.ProcSmapsInfo, align 8
  %9 = alloca %class.ProcSmapsParser, align 8
  store ptr %0, ptr %2, align 8
  call void @llvm.memcpy.p0.p0.i64(ptr align 16 %3, ptr align 16 @__const._ZN13MemMapPrinter21pd_print_all_mappingsERK19MappingPrintSession.filename, i64 17, i1 false)
  %10 = getelementptr inbounds [17 x i8], ptr %3, i64 0, i64 0
  %11 = call noundef ptr @_ZN2os5fopenEPKcS1_(ptr noundef %10, ptr noundef @.str)
  store ptr %11, ptr %4, align 8
  %12 = load ptr, ptr %4, align 8
  %13 = icmp eq ptr %12, null
  br i1 %13, label %14, label %18

14:                                               ; preds = %1
  %15 = load ptr, ptr %2, align 8
  %16 = call noundef ptr @_ZNK19MappingPrintSession3outEv(ptr noundef nonnull align 8 dereferenceable(16) %15)
  %17 = getelementptr inbounds [17 x i8], ptr %3, i64 0, i64 0
  call void (ptr, ptr, ...) @_ZN12outputStream8print_crEPKcz(ptr noundef nonnull align 8 dereferenceable(56) %16, ptr noundef @.str.4, ptr noundef %17)
  br label %33

18:                                               ; preds = %1
  %19 = load ptr, ptr %2, align 8
  call void @_ZN16ProcSmapsPrinterC2ERK19MappingPrintSession(ptr noundef nonnull align 8 dereferenceable(8) %5, ptr noundef nonnull align 8 dereferenceable(16) %19)
  call void @_ZN16ProcSmapsSummaryC2Ev(ptr noundef nonnull align 8 dereferenceable(64) %6)
  %20 = load ptr, ptr %2, align 8
  %21 = call noundef ptr @_ZNK19MappingPrintSession3outEv(ptr noundef nonnull align 8 dereferenceable(16) %20)
  store ptr %21, ptr %7, align 8
  call void @_ZNK16ProcSmapsPrinter12print_legendEv(ptr noundef nonnull align 8 dereferenceable(8) %5)
  %22 = load ptr, ptr %7, align 8
  call void @_ZN12outputStream2crEv(ptr noundef nonnull align 8 dereferenceable(56) %22)
  call void @_ZNK16ProcSmapsPrinter12print_headerEv(ptr noundef nonnull align 8 dereferenceable(8) %5)
  %23 = load ptr, ptr %4, align 8
  call void @_ZN15ProcSmapsParserC1EP8_IO_FILE(ptr noundef nonnull align 8 dereferenceable(24) %9, ptr noundef %23)
  br label %24

24:                                               ; preds = %26, %18
  %25 = call noundef zeroext i1 @_ZN15ProcSmapsParser10parse_nextER13ProcSmapsInfo(ptr noundef nonnull align 8 dereferenceable(24) %9, ptr noundef nonnull align 8 dereferenceable(1120) %8)
  br i1 %25, label %26, label %27

26:                                               ; preds = %24
  call void @_ZNK16ProcSmapsPrinter20print_single_mappingERK13ProcSmapsInfo(ptr noundef nonnull align 8 dereferenceable(8) %5, ptr noundef nonnull align 8 dereferenceable(1120) %8)
  call void @_ZN16ProcSmapsSummary11add_mappingERK13ProcSmapsInfo(ptr noundef nonnull align 8 dereferenceable(64) %6, ptr noundef nonnull align 8 dereferenceable(1120) %8)
  br label %24, !llvm.loop !6

27:                                               ; preds = %24
  %28 = load ptr, ptr %7, align 8
  call void @_ZN12outputStream2crEv(ptr noundef nonnull align 8 dereferenceable(56) %28)
  %29 = load ptr, ptr %2, align 8
  call void @_ZNK16ProcSmapsSummary8print_onERK19MappingPrintSession(ptr noundef nonnull align 8 dereferenceable(64) %6, ptr noundef nonnull align 8 dereferenceable(16) %29)
  %30 = load ptr, ptr %7, align 8
  call void @_ZN12outputStream2crEv(ptr noundef nonnull align 8 dereferenceable(56) %30)
  %31 = load ptr, ptr %4, align 8
  %32 = call i32 @fclose(ptr noundef %31)
  call void @_ZN15ProcSmapsParserD1Ev(ptr noundef nonnull align 8 dereferenceable(24) %9) #6
  br label %33

33:                                               ; preds = %27, %14
  ret void
}