; Function Attrs: mustprogress nounwind uwtable
define hidden void @_ZN13MemMapPrinter21pd_print_all_mappingsERK19MappingPrintSession(ptr noundef nonnull align 8 dereferenceable(16) %0) local_unnamed_addr #0 align 2 {
  %2 = alloca [17 x i8], align 16
  %3 = alloca %class.ProcSmapsPrinter, align 8
  %4 = alloca %class.ProcSmapsSummary, align 8
  %5 = alloca %struct.ProcSmapsInfo, align 8
  %6 = alloca %class.ProcSmapsParser, align 8
  call void @llvm.memcpy.p0.p0.i64(ptr noundef nonnull align 16 dereferenceable(17) %2, ptr noundef nonnull align 16 dereferenceable(17) @__const._ZN13MemMapPrinter21pd_print_all_mappingsERK19MappingPrintSession.filename, i64 17, i1 false)
  %7 = call noundef ptr @_ZN2os5fopenEPKcS1_(ptr noundef nonnull %2, ptr noundef nonnull @.str) #7
  %8 = icmp eq ptr %7, null
  br i1 %8, label %9, label %11

9:                                                ; preds = %1
  %10 = load ptr, ptr %0, align 8
  call void (ptr, ptr, ...) @_ZN12outputStream8print_crEPKcz(ptr noundef nonnull align 8 dereferenceable(56) %10, ptr noundef nonnull @.str.4, ptr noundef nonnull %2) #7
  br label %67

11:                                               ; preds = %1
  store ptr %0, ptr %3, align 8
  store i32 0, ptr %4, align 8
  %12 = getelementptr inbounds i8, ptr %4, i64 8
  call void @llvm.memset.p0.i64(ptr noundef nonnull align 8 dereferenceable(56) %12, i8 0, i64 56, i1 false)
  %13 = load ptr, ptr %0, align 8
  call void @_ZNK16ProcSmapsPrinter12print_legendEv(ptr noundef nonnull align 8 dereferenceable(8) %3)
  call void @_ZN12outputStream2crEv(ptr noundef nonnull align 8 dereferenceable(56) %13) #7
  %14 = load ptr, ptr %3, align 8
  %15 = load ptr, ptr %14, align 8
  call void (ptr, ptr, ...) @_ZN12outputStream8print_crEPKcz(ptr noundef nonnull align 8 dereferenceable(56) %15, ptr noundef nonnull @.str.20) #7
  call void (ptr, ptr, ...) @_ZN12outputStream8print_crEPKcz(ptr noundef nonnull align 8 dereferenceable(56) %15, ptr noundef nonnull @.str.21) #7
  call void @_ZN15ProcSmapsParserC1EP8_IO_FILE(ptr noundef nonnull align 8 dereferenceable(24) %6, ptr noundef nonnull %7) #7
  %16 = call noundef zeroext i1 @_ZN15ProcSmapsParser10parse_nextER13ProcSmapsInfo(ptr noundef nonnull align 8 dereferenceable(24) %6, ptr noundef nonnull align 8 dereferenceable(1120) %5) #7
  br i1 %16, label %_ZN16ProcSmapsSummary11add_mappingERK13ProcSmapsInfo.exit.lr.ph, label %._crit_edge

_ZN16ProcSmapsSummary11add_mappingERK13ProcSmapsInfo.exit.lr.ph: ; preds = %11
  %17 = getelementptr inbounds i8, ptr %5, i64 8
  %18 = getelementptr inbounds i8, ptr %5, i64 1072
  %19 = getelementptr inbounds i8, ptr %4, i64 16
  %20 = getelementptr inbounds i8, ptr %5, i64 1116
  %21 = getelementptr inbounds i8, ptr %4, i64 24
  %22 = getelementptr inbounds i8, ptr %5, i64 1115
  %23 = getelementptr inbounds i8, ptr %4, i64 32
  %24 = getelementptr inbounds i8, ptr %5, i64 1104
  %25 = getelementptr inbounds i8, ptr %4, i64 40
  %26 = getelementptr inbounds i8, ptr %5, i64 1080
  %27 = getelementptr inbounds i8, ptr %5, i64 1088
  %28 = getelementptr inbounds i8, ptr %4, i64 48
  %29 = getelementptr inbounds i8, ptr %5, i64 1096
  %30 = getelementptr inbounds i8, ptr %4, i64 56
  br label %_ZN16ProcSmapsSummary11add_mappingERK13ProcSmapsInfo.exit

_ZN16ProcSmapsSummary11add_mappingERK13ProcSmapsInfo.exit: ; preds = %_ZN16ProcSmapsSummary11add_mappingERK13ProcSmapsInfo.exit.lr.ph, %_ZN16ProcSmapsSummary11add_mappingERK13ProcSmapsInfo.exit
  %31 = phi i64 [ 0, %_ZN16ProcSmapsSummary11add_mappingERK13ProcSmapsInfo.exit.lr.ph ], [ %64, %_ZN16ProcSmapsSummary11add_mappingERK13ProcSmapsInfo.exit ]
  %32 = phi i64 [ 0, %_ZN16ProcSmapsSummary11add_mappingERK13ProcSmapsInfo.exit.lr.ph ], [ %62, %_ZN16ProcSmapsSummary11add_mappingERK13ProcSmapsInfo.exit ]
  %33 = phi i64 [ 0, %_ZN16ProcSmapsSummary11add_mappingERK13ProcSmapsInfo.exit.lr.ph ], [ %58, %_ZN16ProcSmapsSummary11add_mappingERK13ProcSmapsInfo.exit ]
  %34 = phi i64 [ 0, %_ZN16ProcSmapsSummary11add_mappingERK13ProcSmapsInfo.exit.lr.ph ], [ %56, %_ZN16ProcSmapsSummary11add_mappingERK13ProcSmapsInfo.exit ]
  %35 = phi i64 [ 0, %_ZN16ProcSmapsSummary11add_mappingERK13ProcSmapsInfo.exit.lr.ph ], [ %52, %_ZN16ProcSmapsSummary11add_mappingERK13ProcSmapsInfo.exit ]
  %36 = phi i64 [ 0, %_ZN16ProcSmapsSummary11add_mappingERK13ProcSmapsInfo.exit.lr.ph ], [ %49, %_ZN16ProcSmapsSummary11add_mappingERK13ProcSmapsInfo.exit ]
  %37 = phi i64 [ 0, %_ZN16ProcSmapsSummary11add_mappingERK13ProcSmapsInfo.exit.lr.ph ], [ %47, %_ZN16ProcSmapsSummary11add_mappingERK13ProcSmapsInfo.exit ]
  %38 = phi i32 [ 0, %_ZN16ProcSmapsSummary11add_mappingERK13ProcSmapsInfo.exit.lr.ph ], [ %39, %_ZN16ProcSmapsSummary11add_mappingERK13ProcSmapsInfo.exit ]
  call void @_ZNK16ProcSmapsPrinter20print_single_mappingERK13ProcSmapsInfo(ptr noundef nonnull align 8 dereferenceable(8) %3, ptr noundef nonnull align 8 dereferenceable(1120) %5)
  %39 = add i32 %38, 1
  store i32 %39, ptr %4, align 8
  %40 = load ptr, ptr %5, align 8
  %41 = load ptr, ptr %17, align 8
  %42 = icmp ult ptr %40, %41
  %43 = ptrtoint ptr %41 to i64
  %44 = ptrtoint ptr %40 to i64
  %45 = sub i64 %43, %44
  %46 = select i1 %42, i64 %45, i64 0
  %47 = add i64 %46, %37
  store i64 %47, ptr %12, align 8
  %48 = load i64, ptr %18, align 8
  %49 = add i64 %36, %48
  store i64 %49, ptr %19, align 8
  %50 = load i8, ptr %20, align 4
  %51 = trunc i8 %50 to i1
  %spec.select = select i1 %51, i64 0, i64 %46
  %52 = add i64 %spec.select, %35
  store i64 %52, ptr %21, align 8
  %53 = load i8, ptr %22, align 1
  %54 = trunc i8 %53 to i1
  %55 = select i1 %54, i64 %46, i64 0
  %56 = add i64 %55, %34
  store i64 %56, ptr %23, align 8
  %57 = load i64, ptr %24, align 8
  %58 = add i64 %33, %57
  store i64 %58, ptr %25, align 8
  %59 = load i64, ptr %26, align 8
  %60 = load i64, ptr %27, align 8
  %61 = add i64 %60, %59
  %62 = add i64 %61, %32
  store i64 %62, ptr %28, align 8
  %63 = load i64, ptr %29, align 8
  %64 = add i64 %31, %63
  store i64 %64, ptr %30, align 8
  %65 = call noundef zeroext i1 @_ZN15ProcSmapsParser10parse_nextER13ProcSmapsInfo(ptr noundef nonnull align 8 dereferenceable(24) %6, ptr noundef nonnull align 8 dereferenceable(1120) %5) #7
  br i1 %65, label %_ZN16ProcSmapsSummary11add_mappingERK13ProcSmapsInfo.exit, label %._crit_edge, !llvm.loop !6

._crit_edge:                                      ; preds = %_ZN16ProcSmapsSummary11add_mappingERK13ProcSmapsInfo.exit, %11
  call void @_ZN12outputStream2crEv(ptr noundef nonnull align 8 dereferenceable(56) %13) #7
  call void @_ZNK16ProcSmapsSummary8print_onERK19MappingPrintSession(ptr noundef nonnull align 8 dereferenceable(64) %4, ptr noundef nonnull align 8 dereferenceable(16) %0)
  call void @_ZN12outputStream2crEv(ptr noundef nonnull align 8 dereferenceable(56) %13) #7
  %66 = call i32 @fclose(ptr noundef nonnull %7)
  call void @_ZN15ProcSmapsParserD1Ev(ptr noundef nonnull align 8 dereferenceable(24) %6) #7
  br label %67

67:                                               ; preds = %._crit_edge, %9
  ret void
}